; Function Attrs: mustprogress nofree norecurse nosync nounwind willreturn memory(argmem: read) uwtable
define noundef zeroext i1 @_ZNK8proxygen2hq14HQControlCodec16isWaitingToDrainEv(ptr nocapture noundef nonnull readonly align 16 dereferenceable(232) %this) unnamed_addr #10 align 2 {
entry:
  %doubleGoaway_ = getelementptr inbounds i8, ptr %this, i64 192
  %0 = load <2 x i8>, ptr %doubleGoaway_, align 16
  %1 = and <2 x i8> %0, <i8 1, i8 1>
  %2 = icmp eq <2 x i8> %1, zeroinitializer
  %3 = extractelement <2 x i1> %2, i64 0
  %4 = extractelement <2 x i1> %2, i64 1
  %brmerge = select i1 %3, i1 true, i1 %4
  %tobool2.not.mux = select i1 %3, i1 %4, i1 false
  br i1 %brmerge, label %lor.end, label %land.rhs

land.rhs:                                         ; preds = %entry
  %sentFinalGoaway_ = getelementptr inbounds i8, ptr %this, i64 194
  %5 = load i8, ptr %sentFinalGoaway_, align 2
  %6 = and i8 %5, 1
  %tobool8.not = icmp eq i8 %6, 0
  br label %lor.end

lor.end:                                          ; preds = %entry, %land.rhs
  %7 = phi i1 [ %tobool8.not, %land.rhs ], [ %tobool2.not.mux, %entry ]
  ret i1 %7
}